target datalayout = "e-m:e-p270:32:32-p271:32:32-p272:64:64-i64:64-i128:128-f80:128-n8:16:32:64-S128"
target triple = "x86_64-pc-linux-gnu"

%struct._object = type { %union.anon, ptr }
%union.anon = type { i64 }
%struct.odictiterobject = type { %struct._object, i32, ptr, i64, i64, ptr, ptr }

; Function Attrs: nounwind uwtable
define internal i32 @odictiter_traverse(ptr noundef %0, ptr noundef %1, ptr noundef %2) #0 {
  %4 = alloca i32, align 4
  %5 = alloca ptr, align 8
  %6 = alloca ptr, align 8
  %7 = alloca ptr, align 8
  %8 = alloca i32, align 4
  %9 = alloca i32, align 4
  %10 = alloca i32, align 4
  %11 = alloca i32, align 4
  store ptr %0, ptr %5, align 8, !tbaa !44
  store ptr %1, ptr %6, align 8, !tbaa !44
  store ptr %2, ptr %7, align 8, !tbaa !44
  br label %12

12:                                               ; preds = %3
  %13 = load ptr, ptr %5, align 8, !tbaa !44
  %14 = getelementptr inbounds nuw %struct.odictiterobject, ptr %13, i32 0, i32 2
  %15 = load ptr, ptr %14, align 8, !tbaa !59
  %16 = icmp ne ptr %15, null
  br i1 %16, label %17, label %32

17:                                               ; preds = %12
  call void @llvm.lifetime.start.p0(i64 4, ptr %8) #7
  %18 = load ptr, ptr %6, align 8, !tbaa !44
  %19 = load ptr, ptr %5, align 8, !tbaa !44
  %20 = getelementptr inbounds nuw %struct.odictiterobject, ptr %19, i32 0, i32 2
  %21 = load ptr, ptr %20, align 8, !tbaa !59
  %22 = load ptr, ptr %7, align 8, !tbaa !44
  %23 = call i32 %18(ptr noundef %21, ptr noundef %22)
  store i32 %23, ptr %8, align 4, !tbaa !43
  %24 = load i32, ptr %8, align 4, !tbaa !43
  %25 = icmp ne i32 %24, 0
  br i1 %25, label %26, label %28

26:                                               ; preds = %17
  %27 = load i32, ptr %8, align 4, !tbaa !43
  store i32 %27, ptr %4, align 4
  store i32 1, ptr %9, align 4
  br label %29

28:                                               ; preds = %17
  store i32 0, ptr %9, align 4
  br label %29

29:                                               ; preds = %28, %26
  call void @llvm.lifetime.end.p0(i64 4, ptr %8) #7
  %30 = load i32, ptr %9, align 4
  switch i32 %30, label %80 [
    i32 0, label %31
    i32 1, label %78
  ]

31:                                               ; preds = %29
  br label %32

32:                                               ; preds = %31, %12
  br label %33

33:                                               ; preds = %32
  br label %34

34:                                               ; preds = %33
  %35 = load ptr, ptr %5, align 8, !tbaa !44
  %36 = getelementptr inbounds nuw %struct.odictiterobject, ptr %35, i32 0, i32 5
  %37 = load ptr, ptr %36, align 8, !tbaa !61
  %38 = icmp ne ptr %37, null
  br i1 %38, label %39, label %54

39:                                               ; preds = %34
  call void @llvm.lifetime.start.p0(i64 4, ptr %10) #7
  %40 = load ptr, ptr %6, align 8, !tbaa !44
  %41 = load ptr, ptr %5, align 8, !tbaa !44
  %42 = getelementptr inbounds nuw %struct.odictiterobject, ptr %41, i32 0, i32 5
  %43 = load ptr, ptr %42, align 8, !tbaa !61
  %44 = load ptr, ptr %7, align 8, !tbaa !44
  %45 = call i32 %40(ptr noundef %43, ptr noundef %44)
  store i32 %45, ptr %10, align 4, !tbaa !43
  %46 = load i32, ptr %10, align 4, !tbaa !43
  %47 = icmp ne i32 %46, 0
  br i1 %47, label %48, label %50

48:                                               ; preds = %39
  %49 = load i32, ptr %10, align 4, !tbaa !43
  store i32 %49, ptr %4, align 4
  store i32 1, ptr %9, align 4
  br label %51

50:                                               ; preds = %39
  store i32 0, ptr %9, align 4
  br label %51

51:                                               ; preds = %50, %48
  call void @llvm.lifetime.end.p0(i64 4, ptr %10) #7
  %52 = load i32, ptr %9, align 4
  switch i32 %52, label %80 [
    i32 0, label %53
    i32 1, label %78
  ]

53:                                               ; preds = %51
  br label %54

54:                                               ; preds = %53, %34
  br label %55

55:                                               ; preds = %54
  br label %56

56:                                               ; preds = %55
  %57 = load ptr, ptr %5, align 8, !tbaa !44
  %58 = getelementptr inbounds nuw %struct.odictiterobject, ptr %57, i32 0, i32 6
  %59 = load ptr, ptr %58, align 8, !tbaa !63
  %60 = icmp ne ptr %59, null
  br i1 %60, label %61, label %76

61:                                               ; preds = %56
  call void @llvm.lifetime.start.p0(i64 4, ptr %11) #7
  %62 = load ptr, ptr %6, align 8, !tbaa !44
  %63 = load ptr, ptr %5, align 8, !tbaa !44
  %64 = getelementptr inbounds nuw %struct.odictiterobject, ptr %63, i32 0, i32 6
  %65 = load ptr, ptr %64, align 8, !tbaa !63
  %66 = load ptr, ptr %7, align 8, !tbaa !44
  %67 = call i32 %62(ptr noundef %65, ptr noundef %66)
  store i32 %67, ptr %11, align 4, !tbaa !43
  %68 = load i32, ptr %11, align 4, !tbaa !43
  %69 = icmp ne i32 %68, 0
  br i1 %69, label %70, label %72

70:                                               ; preds = %61
  %71 = load i32, ptr %11, align 4, !tbaa !43
  store i32 %71, ptr %4, align 4
  store i32 1, ptr %9, align 4
  br label %73

72:                                               ; preds = %61
  store i32 0, ptr %9, align 4
  br label %73

73:                                               ; preds = %72, %70
  call void @llvm.lifetime.end.p0(i64 4, ptr %11) #7
  %74 = load i32, ptr %9, align 4
  switch i32 %74, label %80 [
    i32 0, label %75
    i32 1, label %78
  ]

75:                                               ; preds = %73
  br label %76

76:                                               ; preds = %75, %56
  br label %77

77:                                               ; preds = %76
  store i32 0, ptr %4, align 4
  br label %78

78:                                               ; preds = %77, %73, %51, %29
  %79 = load i32, ptr %4, align 4
  ret i32 %79

80:                                               ; preds = %73, %51, %29
  unreachable
}