; Function Attrs: nounwind uwtable
define internal i32 @odictiter_traverse(ptr noundef readonly captures(none) %0, ptr noundef readonly captures(none) %1, ptr noundef %2) #0 {
  %4 = getelementptr inbounds nuw i8, ptr %0, i64 24
  %5 = load ptr, ptr %4, align 8, !tbaa !63
  %.not = icmp eq ptr %5, null
  br i1 %.not, label %8, label %6

6:                                                ; preds = %3
  %7 = tail call i32 %1(ptr noundef nonnull %5, ptr noundef %2) #8
  %.not28.not = icmp eq i32 %7, 0
  br i1 %.not28.not, label %8, label %19

8:                                                ; preds = %6, %3
  %9 = getelementptr inbounds nuw i8, ptr %0, i64 48
  %10 = load ptr, ptr %9, align 8, !tbaa !60
  %.not29 = icmp eq ptr %10, null
  br i1 %.not29, label %13, label %11

11:                                               ; preds = %8
  %12 = tail call i32 %1(ptr noundef nonnull %10, ptr noundef %2) #8
  %.not30.not = icmp eq i32 %12, 0
  br i1 %.not30.not, label %13, label %19

13:                                               ; preds = %11, %8
  %14 = getelementptr inbounds nuw i8, ptr %0, i64 56
  %15 = load ptr, ptr %14, align 8, !tbaa !56
  %.not31 = icmp eq ptr %15, null
  br i1 %.not31, label %18, label %16

16:                                               ; preds = %13
  %17 = tail call i32 %1(ptr noundef nonnull %15, ptr noundef %2) #8
  %.not32.not = icmp eq i32 %17, 0
  br i1 %.not32.not, label %18, label %19

18:                                               ; preds = %16, %13
  br label %19

19:                                               ; preds = %16, %11, %6, %18
  %.1 = phi i32 [ %7, %6 ], [ %12, %11 ], [ %17, %16 ], [ 0, %18 ]
  ret i32 %.1
}